Certificate:
    Data:
        Version: 3 (0x2)
        Serial Number:
            b5:5e:42:7c:92:b9:67:bd:e9:7d:25:8a:7c:f7:f1:00
        Signature Algorithm: sha256WithRSAEncryption
        Issuer: CN=CA
        Validity
            Not Before: Dec 16 18:50:08 2023 GMT
            Not After : Nov 30 18:50:08 2026 GMT
        Subject: CN=pc2
        Subject Public Key Info:
            Public Key Algorithm: rsaEncryption
                RSA Public-Key: (2048 bit)
                Modulus:
                    00:ab:48:a9:a8:99:2c:ad:f5:56:ff:55:78:f5:d8:
                    96:a9:d8:1b:2a:86:c3:86:ca:a7:ec:3d:2f:fb:f3:
                    ad:da:53:26:20:3e:61:5d:4d:37:0d:9f:31:8a:f0:
                    35:c5:b8:34:59:52:3c:29:7a:ea:7d:ff:fb:b7:cf:
                    4d:52:f4:9d:21:a6:f8:6b:51:54:51:9c:86:5e:6b:
                    78:42:69:4c:10:e9:23:ee:8e:5d:f9:af:32:33:4a:
                    db:44:78:c2:d5:41:d5:1d:60:bb:66:b9:bb:c7:aa:
                    63:6a:b9:c7:de:42:56:41:23:a2:2f:f7:57:67:9e:
                    52:9c:08:c2:83:d4:46:dd:14:d2:ee:54:9f:b0:c0:
                    ae:82:83:ff:84:13:c3:5b:c3:82:d1:79:a1:2d:1b:
                    2f:ac:ae:54:f5:46:6b:1d:9c:2e:03:4a:f5:65:ef:
                    1b:26:d9:c9:2b:95:cb:94:de:be:78:13:4b:38:04:
                    73:54:52:91:0f:ee:90:1d:d9:a1:e8:bb:29:20:6d:
                    db:b5:c8:0a:01:18:74:fd:64:d0:8c:86:d3:82:6f:
                    e7:2d:7e:3e:86:4c:33:f9:6c:0b:e2:da:0f:5c:91:
                    62:6b:06:22:0d:70:4e:be:6a:29:6a:4d:f5:5f:15:
                    33:e3:ee:d6:d6:fc:db:8e:f2:fa:0e:1e:7d:d3:31:
                    54:59
                Exponent: 65537 (0x10001)
        X509v3 extensions:
            X509v3 Basic Constraints: 
                CA:FALSE
            X509v3 Subject Key Identifier: 
                EA:45:A2:81:75:2A:08:30:21:6E:76:B6:47:0E:D2:5F:AF:41:A2:E2
            X509v3 Authority Key Identifier: 
                keyid:1B:F9:46:09:F4:F7:1A:C5:07:7C:4B:7E:A7:84:0F:4D:3E:87:A6:83
                DirName:/CN=CA
                serial:39:3F:81:BF:CA:FE:EB:5E:AE:A3:9C:7D:65:C4:71:BE:03:39:43:FC

            X509v3 Extended Key Usage: 
                TLS Web Client Authentication
            X509v3 Key Usage: 
                Digital Signature
    Signature Algorithm: sha256WithRSAEncryption
         3d:ca:46:50:60:b7:d3:ec:fd:e9:70:00:06:d7:7d:b9:8a:f7:
         80:30:85:1b:7f:63:ef:69:2f:bf:f6:30:6a:93:2e:dc:18:1e:
         94:6a:3c:af:9f:59:cb:cd:4e:9d:fa:a1:8d:95:28:c0:60:99:
         74:cc:0a:b4:43:8c:e6:31:63:4a:60:81:33:7d:82:77:67:ed:
         91:30:64:26:a6:25:4f:fb:dd:c0:b5:b6:ff:40:ad:ca:71:ac:
         e3:35:d1:94:1b:b5:75:ca:c5:b5:48:7a:53:be:2f:65:c9:df:
         40:70:e8:5c:89:8f:2c:ba:d9:88:cf:fc:96:c2:04:42:c0:96:
         2d:b7:1b:03:58:6d:f3:ff:48:f7:64:95:e2:ad:ef:cb:f8:94:
         8f:02:3b:ea:9c:7a:55:74:7e:af:1b:f7:4a:f5:9f:55:30:86:
         42:96:74:5d:a7:cd:c5:3a:fe:46:31:72:39:fb:f9:fd:89:70:
         df:22:2d:bd:33:88:4b:52:7b:2e:9b:3b:4e:4b:2b:cc:e9:d0:
         c9:62:cb:fa:78:5d:4d:be:70:ab:40:d5:d6:fe:fa:b3:a2:53:
         ce:47:c8:39:f0:f4:0c:12:96:2c:ff:f1:d5:9a:46:38:24:6c:
         cf:d2:fd:e4:f9:f1:3d:d4:aa:3b:94:88:03:b8:60:29:e6:12:
         60:1c:21:09
-----BEGIN CERTIFICATE-----
MIIDQDCCAiigAwIBAgIRALVeQnySuWe96X0linz38QAwDQYJKoZIhvcNAQELBQAw
DTELMAkGA1UEAwwCQ0EwHhcNMjMxMjE2MTg1MDA4WhcNMjYxMTMwMTg1MDA4WjAO
MQwwCgYDVQQDDANwYzIwggEiMA0GCSqGSIb3DQEBAQUAA4IBDwAwggEKAoIBAQCr
SKmomSyt9Vb/VXj12Jap2BsqhsOGyqfsPS/7863aUyYgPmFdTTcNnzGK8DXFuDRZ
Ujwpeup9//u3z01S9J0hpvhrUVRRnIZea3hCaUwQ6SPujl35rzIzSttEeMLVQdUd
YLtmubvHqmNqucfeQlZBI6Iv91dnnlKcCMKD1EbdFNLuVJ+wwK6Cg/+EE8Nbw4LR
eaEtGy+srlT1RmsdnC4DSvVl7xsm2ckrlcuU3r54E0s4BHNUUpEP7pAd2aHouykg
bdu1yAoBGHT9ZNCMhtOCb+ctfj6GTDP5bAvi2g9ckWJrBiINcE6+ailqTfVfFTPj
7tbW/NuO8voOHn3TMVRZAgMBAAGjgZkwgZYwCQYDVR0TBAIwADAdBgNVHQ4EFgQU
6kWigXUqCDAhbna2Rw7SX69BouIwSAYDVR0jBEEwP4AUG/lGCfT3GsUHfEt+p4QP
TT6HpoOhEaQPMA0xCzAJBgNVBAMMAkNBghQ5P4G/yv7rXq6jnH1lxHG+AzlD/DAT
BgNVHSUEDDAKBggrBgEFBQcDAjALBgNVHQ8EBAMCB4AwDQYJKoZIhvcNAQELBQAD
ggEBAD3KRlBgt9Ps/elwAAbXfbmK94AwhRt/Y+9pL7/2MGqTLtwYHpRqPK+fWcvN
Tp36oY2VKMBgmXTMCrRDjOYxY0pggTN9gndn7ZEwZCamJU/73cC1tv9ArcpxrOM1
0ZQbtXXKxbVIelO+L2XJ30Bw6FyJjyy62YjP/JbCBELAli23GwNYbfP/SPdkleKt
78v4lI8CO+qcelV0fq8b90r1n1UwhkKWdF2nzcU6/kYxcjn7+f2JcN8iLb0ziEtS
ey6bO05LK8zp0Mliy/p4XU2+cKtA1db++rOiU85HyDnw9AwSliz/8dWaRjgkbM/S
/eT58T3UqjuUiAO4YCnmEmAcIQk=
-----END CERTIFICATE-----
