Certificate:
    Data:
        Version: 3 (0x2)
        Serial Number:
            0b:46:ea:c1:66:a5:c4:b6:14:d8:78:4e:a0:74:20:ec
        Signature Algorithm: sha256WithRSAEncryption
        Issuer: CN=CA
        Validity
            Not Before: Dec 16 18:49:40 2023 GMT
            Not After : Nov 30 18:49:40 2026 GMT
        Subject: CN=myserver
        Subject Public Key Info:
            Public Key Algorithm: rsaEncryption
                RSA Public-Key: (2048 bit)
                Modulus:
                    00:ae:5d:01:ec:15:a0:4b:a3:9c:5b:2f:fc:fc:06:
                    b0:27:20:73:f6:f4:7d:9f:3a:b1:cd:40:dc:42:0c:
                    e0:52:d4:99:a9:2c:f2:ea:1e:31:66:e9:0d:eb:73:
                    22:a7:94:07:ee:14:49:ad:54:3c:4f:07:73:14:30:
                    50:86:65:32:ac:39:1d:86:48:4a:27:7a:87:0f:53:
                    99:26:4b:18:59:3b:65:ce:9c:f1:8b:0f:35:49:31:
                    34:af:ac:35:ac:3a:07:5e:14:0e:54:eb:2b:88:36:
                    b3:bc:9c:05:1c:33:6b:5a:98:c7:1e:44:e4:da:ae:
                    4e:44:b0:23:53:b0:1c:65:5b:93:8d:1b:9f:d2:f7:
                    e5:80:73:2b:d7:10:e9:6a:b1:9e:ae:90:1a:a6:6a:
                    aa:7f:f4:db:df:6c:2e:32:1f:20:0a:89:6d:59:2a:
                    4b:6a:91:44:87:16:9f:15:85:b9:79:9f:b4:4b:b5:
                    6e:01:69:ce:93:4d:3c:25:68:a8:fe:58:b4:91:fc:
                    bf:55:d2:c7:95:a6:fd:4a:30:02:80:bc:95:bd:1e:
                    7c:c4:32:3a:b3:97:37:86:65:b7:80:78:19:40:3e:
                    05:fa:c6:88:f8:ed:c5:d8:0d:b0:99:fc:69:21:dd:
                    e0:59:87:b3:fb:fd:43:7c:41:cb:6d:66:1f:7a:0c:
                    8a:8f
                Exponent: 65537 (0x10001)
        X509v3 extensions:
            X509v3 Basic Constraints: 
                CA:FALSE
            X509v3 Subject Key Identifier: 
                C7:C5:83:3D:0F:9C:D5:0C:AF:E3:99:3F:D2:45:EF:B6:AF:C8:FA:C8
            X509v3 Authority Key Identifier: 
                keyid:1B:F9:46:09:F4:F7:1A:C5:07:7C:4B:7E:A7:84:0F:4D:3E:87:A6:83
                DirName:/CN=CA
                serial:39:3F:81:BF:CA:FE:EB:5E:AE:A3:9C:7D:65:C4:71:BE:03:39:43:FC

            X509v3 Extended Key Usage: 
                TLS Web Server Authentication
            X509v3 Key Usage: 
                Digital Signature, Key Encipherment
            X509v3 Subject Alternative Name: 
                DNS:myserver
    Signature Algorithm: sha256WithRSAEncryption
         a0:6d:30:de:6a:f8:85:62:4c:3e:ea:23:7d:45:c6:76:c4:9f:
         65:7e:6a:06:b8:63:4f:38:48:a8:3f:f1:92:f0:2d:07:d0:b7:
         a4:d4:ff:2e:58:fa:c3:64:f6:b7:10:80:28:02:df:a6:c5:7f:
         ba:54:8f:2c:2d:59:9f:41:73:36:cb:a0:f2:59:42:03:4e:e9:
         98:22:47:12:92:6d:cc:63:de:fb:76:e6:50:82:5c:20:f3:2b:
         dc:1b:49:ff:d5:f5:25:22:55:2e:5f:70:34:a0:65:40:9e:6f:
         4e:f7:41:91:9c:a4:42:c6:b5:e1:be:b6:7c:47:23:a9:0e:85:
         b4:66:00:c3:57:21:b8:d3:4c:49:fa:df:3f:22:b8:07:4e:38:
         dc:75:0a:28:39:c3:75:83:f4:47:77:b0:79:5e:56:cd:59:eb:
         90:c6:f7:9b:2f:25:f4:e0:2c:e6:43:12:42:f6:62:05:b6:eb:
         f8:b1:e0:41:56:18:e2:7f:fc:15:8e:ee:9f:f0:9c:b7:ef:aa:
         b3:31:48:12:a2:64:a7:95:34:f0:5f:d4:83:2d:7a:28:b8:65:
         d2:d6:de:28:c8:20:e4:7e:8f:66:16:f7:2b:63:55:9b:44:03:
         ab:d0:c3:7d:55:28:78:8c:54:2e:54:c8:1f:d6:80:47:e2:19:
         e4:11:d4:83
-----BEGIN CERTIFICATE-----
MIIDWTCCAkGgAwIBAgIQC0bqwWalxLYU2HhOoHQg7DANBgkqhkiG9w0BAQsFADAN
MQswCQYDVQQDDAJDQTAeFw0yMzEyMTYxODQ5NDBaFw0yNjExMzAxODQ5NDBaMBMx
ETAPBgNVBAMMCG15c2VydmVyMIIBIjANBgkqhkiG9w0BAQEFAAOCAQ8AMIIBCgKC
AQEArl0B7BWgS6OcWy/8/AawJyBz9vR9nzqxzUDcQgzgUtSZqSzy6h4xZukN63Mi
p5QH7hRJrVQ8TwdzFDBQhmUyrDkdhkhKJ3qHD1OZJksYWTtlzpzxiw81STE0r6w1
rDoHXhQOVOsriDazvJwFHDNrWpjHHkTk2q5ORLAjU7AcZVuTjRuf0vflgHMr1xDp
arGerpAapmqqf/Tb32wuMh8gColtWSpLapFEhxafFYW5eZ+0S7VuAWnOk008JWio
/li0kfy/VdLHlab9SjACgLyVvR58xDI6s5c3hmW3gHgZQD4F+saI+O3F2A2wmfxp
Id3gWYez+/1DfEHLbWYfegyKjwIDAQABo4GuMIGrMAkGA1UdEwQCMAAwHQYDVR0O
BBYEFMfFgz0PnNUMr+OZP9JF77avyPrIMEgGA1UdIwRBMD+AFBv5Rgn09xrFB3xL
fqeED00+h6aDoRGkDzANMQswCQYDVQQDDAJDQYIUOT+Bv8r+616uo5x9ZcRxvgM5
Q/wwEwYDVR0lBAwwCgYIKwYBBQUHAwEwCwYDVR0PBAQDAgWgMBMGA1UdEQQMMAqC
CG15c2VydmVyMA0GCSqGSIb3DQEBCwUAA4IBAQCgbTDeaviFYkw+6iN9RcZ2xJ9l
fmoGuGNPOEioP/GS8C0H0Lek1P8uWPrDZPa3EIAoAt+mxX+6VI8sLVmfQXM2y6Dy
WUIDTumYIkcSkm3MY977duZQglwg8yvcG0n/1fUlIlUuX3A0oGVAnm9O90GRnKRC
xrXhvrZ8RyOpDoW0ZgDDVyG400xJ+t8/IrgHTjjcdQooOcN1g/RHd7B5XlbNWeuQ
xvebLyX04CzmQxJC9mIFtuv4seBBVhjif/wVju6f8Jy376qzMUgSomSnlTTwX9SD
LXoouGXS1t4oyCDkfo9mFvcrY1WbRAOr0MN9VSh4jFQuVMgf1oBH4hnkEdSD
-----END CERTIFICATE-----
